; Function Attrs: mustprogress uwtable
define noundef zeroext i1 @_ZNK32pxrInternal_v0_24__pxrReserved__15UsdRelationship7_CreateEb(ptr noundef nonnull align 8 dereferenceable(32) %0, i1 noundef zeroext %1) local_unnamed_addr #0 align 2 personality ptr @__gxx_personality_v0 {
  %3 = alloca %"class.pxrInternal_v0_24__pxrReserved__::SdfHandle", align 8
  call void @_ZNK32pxrInternal_v0_24__pxrReserved__15UsdRelationship11_CreateSpecEb(ptr dead_on_unwind nonnull writable sret(%"class.pxrInternal_v0_24__pxrReserved__::SdfHandle") align 8 %3, ptr noundef nonnull align 8 dereferenceable(32) %0, i1 noundef zeroext %1)
  %4 = invoke noundef zeroext i1 @_ZNK32pxrInternal_v0_24__pxrReserved__7SdfSpec9IsDormantEv(ptr noundef nonnull align 8 dereferenceable(8) %3)
          to label %5 unwind label %7

5:                                                ; preds = %2
  %6 = xor i1 %4, true
  call void @_ZN32pxrInternal_v0_24__pxrReserved__7SdfSpecD2Ev(ptr noundef nonnull align 8 dereferenceable(8) %3) #16
  ret i1 %6

7:                                                ; preds = %2
  %8 = landingpad { ptr, i32 }
          cleanup
  call void @_ZN32pxrInternal_v0_24__pxrReserved__7SdfSpecD2Ev(ptr noundef nonnull align 8 dereferenceable(8) %3) #16
  resume { ptr, i32 } %8
}